; Function Attrs: null_pointer_is_valid sspstrong uwtable
define internal i32 @dissect_e1ap_T_startTimeStamp(ptr noundef %0, i32 noundef %1, ptr noundef %2, ptr noundef %3, i32 noundef %4) #0 {
  %6 = alloca ptr, align 8
  call void @llvm.lifetime.start.p0(i64 8, ptr nonnull %6) #6
  store ptr null, ptr %6, align 8
  %7 = call i32 @dissect_per_octet_string(ptr noundef %0, i32 noundef %1, ptr noundef %2, ptr noundef %3, i32 noundef %4, i32 noundef 4, i32 noundef 4, i1 noundef zeroext false, ptr noundef nonnull %6)
  %8 = load ptr, ptr %6, align 8
  %.not = icmp eq ptr %8, null
  br i1 %.not, label %13, label %9

9:                                                ; preds = %5
  %10 = getelementptr inbounds nuw i8, ptr %2, i64 24
  %11 = load ptr, ptr %10, align 8
  %12 = call ptr @tvb_ntp_fmt_ts_sec(ptr noundef nonnull %8, i32 noundef 0)
  call void (ptr, ptr, ...) @proto_item_append_text(ptr noundef %11, ptr noundef nonnull @.str.2523, ptr noundef %12)
  br label %13

13:                                               ; preds = %9, %5
  call void @llvm.lifetime.end.p0(i64 8, ptr nonnull %6) #6
  ret i32 %7
}